target datalayout = "e-m:e-p270:32:32-p271:32:32-p272:64:64-i64:64-i128:128-f80:128-n8:16:32:64-S128"
target triple = "x86_64-pc-linux-gnu"

%"class.llvm::StringRef" = type { ptr, i64 }

; Function Attrs: mustprogress nounwind uwtable
define linkonce_odr noundef nonnull align 8 dereferenceable(8) ptr @_ZSt3minImERKT_S2_S2_(ptr noundef nonnull align 8 dereferenceable(8) %0, ptr noundef nonnull align 8 dereferenceable(8) %1) #0 comdat {
  %3 = alloca ptr, align 8
  %4 = alloca ptr, align 8
  %5 = alloca ptr, align 8
  store ptr %0, ptr %4, align 8
  store ptr %1, ptr %5, align 8
  %6 = load ptr, ptr %5, align 8
  %7 = load i64, ptr %6, align 8
  %8 = load ptr, ptr %4, align 8
  %9 = load i64, ptr %8, align 8
  %10 = icmp ult i64 %7, %9
  br i1 %10, label %11, label %13

11:                                               ; preds = %2
  %12 = load ptr, ptr %5, align 8
  store ptr %12, ptr %3, align 8
  br label %15

13:                                               ; preds = %2
  %14 = load ptr, ptr %4, align 8
  store ptr %14, ptr %3, align 8
  br label %15

15:                                               ; preds = %13, %11
  %16 = load ptr, ptr %3, align 8
  ret ptr %16
}

; Function Attrs: mustprogress nounwind uwtable
define dso_local noundef i64 @_ZNK4llvm9StringRef16find_last_not_ofEcm(ptr noundef nonnull align 8 dereferenceable(16) %0, i8 noundef signext %1, i64 noundef %2) #0 align 2 {
  %4 = alloca i64, align 8
  %5 = alloca ptr, align 8
  %6 = alloca i8, align 1
  %7 = alloca i64, align 8
  %8 = alloca i64, align 8
  %9 = alloca i64, align 8
  store ptr %0, ptr %5, align 8
  store i8 %1, ptr %6, align 1
  store i64 %2, ptr %7, align 8
  %10 = load ptr, ptr %5, align 8
  %11 = getelementptr inbounds nuw %"class.llvm::StringRef", ptr %10, i32 0, i32 1
  %12 = call noundef nonnull align 8 dereferenceable(8) ptr @_ZSt3minImERKT_S2_S2_(ptr noundef nonnull align 8 dereferenceable(8) %7, ptr noundef nonnull align 8 dereferenceable(8) %11)
  %13 = load i64, ptr %12, align 8
  %14 = sub i64 %13, 1
  store i64 %14, ptr %8, align 8
  store i64 -1, ptr %9, align 8
  br label %15

15:                                               ; preds = %32, %3
  %16 = load i64, ptr %8, align 8
  %17 = load i64, ptr %9, align 8
  %18 = icmp ne i64 %16, %17
  br i1 %18, label %19, label %35

19:                                               ; preds = %15
  %20 = getelementptr inbounds nuw %"class.llvm::StringRef", ptr %10, i32 0, i32 0
  %21 = load ptr, ptr %20, align 8
  %22 = load i64, ptr %8, align 8
  %23 = getelementptr inbounds i8, ptr %21, i64 %22
  %24 = load i8, ptr %23, align 1
  %25 = sext i8 %24 to i32
  %26 = load i8, ptr %6, align 1
  %27 = sext i8 %26 to i32
  %28 = icmp ne i32 %25, %27
  br i1 %28, label %29, label %31

29:                                               ; preds = %19
  %30 = load i64, ptr %8, align 8
  store i64 %30, ptr %4, align 8
  br label %36

31:                                               ; preds = %19
  br label %32

32:                                               ; preds = %31
  %33 = load i64, ptr %8, align 8
  %34 = add i64 %33, -1
  store i64 %34, ptr %8, align 8
  br label %15, !llvm.loop !23

35:                                               ; preds = %15
  store i64 -1, ptr %4, align 8
  br label %36

36:                                               ; preds = %35, %29
  %37 = load i64, ptr %4, align 8
  ret i64 %37
}