; Function Attrs: mustprogress nofree norecurse nosync nounwind willreturn memory(read, inaccessiblemem: none) uwtable
define dso_local noundef i64 @_ZNK4llvm9StringRef16find_last_not_ofEcm(ptr noundef nonnull readonly align 8 captures(none) dereferenceable(16) %0, i8 noundef signext %1, i64 noundef %2) local_unnamed_addr #0 align 2 {
  %4 = getelementptr inbounds nuw i8, ptr %0, i64 8
  %5 = load i64, ptr %4, align 8
  %.sroa.speculated = tail call i64 @llvm.umin.i64(i64 %5, i64 %2)
  %6 = load ptr, ptr %0, align 8
  br label %7

7:                                                ; preds = %8, %3
  %.07.in = phi i64 [ %.sroa.speculated, %3 ], [ %.07, %8 ]
  %.not = icmp eq i64 %.07.in, 0
  br i1 %.not, label %11, label %8

8:                                                ; preds = %7
  %.07 = add i64 %.07.in, -1
  %9 = getelementptr inbounds i8, ptr %6, i64 %.07
  %10 = load i8, ptr %9, align 1
  %.not8 = icmp eq i8 %10, %1
  br i1 %.not8, label %7, label %11, !llvm.loop !24

11:                                               ; preds = %7, %8
  %.07.lcssa = phi i64 [ -1, %7 ], [ %.07, %8 ]
  ret i64 %.07.lcssa
}